	.section	__TEXT,__text,regular,pure_instructions
	.build_version macos, 13, 0	sdk_version 13, 3
	.globl	_print_debug_info               ; -- Begin function print_debug_info
	.p2align	2
_print_debug_info:                      ; @print_debug_info
	.cfi_startproc
; %bb.0:
	stp	x29, x30, [sp, #-16]!           ; 16-byte Folded Spill
	.cfi_def_cfa_offset 16
	mov	x29, sp
	.cfi_def_cfa w29, 16
	.cfi_offset w30, -8
	.cfi_offset w29, -16
	adrp	x0, l_.str@PAGE
	add	x0, x0, l_.str@PAGEOFF
	bl	_printf
	ldp	x29, x30, [sp], #16             ; 16-byte Folded Reload
	ret
	.cfi_endproc
                                        ; -- End function
	.globl	_main                           ; -- Begin function main
	.p2align	2
_main:                                  ; @main
	.cfi_startproc
; %bb.0:
	sub	sp, sp, #32
	.cfi_def_cfa_offset 32
	stp	x29, x30, [sp, #16]             ; 16-byte Folded Spill
	add	x29, sp, #16
	.cfi_def_cfa w29, 16
	.cfi_offset w30, -8
	.cfi_offset w29, -16
	stur	wzr, [x29, #-4]
	str	wzr, [sp, #8]
	b	LBB1_1
LBB1_1:                                 ; =>This Inner Loop Header: Depth=1
	ldr	w8, [sp, #8]
	subs	w8, w8, #10
	cset	w8, ge
	tbnz	w8, #0, LBB1_4
	b	LBB1_2
LBB1_2:                                 ;   in Loop: Header=BB1_1 Depth=1
	adrp	x0, l_.str.1@PAGE
	add	x0, x0, l_.str.1@PAGEOFF
	bl	_printf
	b	LBB1_3
LBB1_3:                                 ;   in Loop: Header=BB1_1 Depth=1
	ldr	w8, [sp, #8]
	add	w8, w8, #1
	str	w8, [sp, #8]
	b	LBB1_1
LBB1_4:
	mov	x9, sp
	mov	x8, #1
	str	x8, [x9]
	adrp	x0, l_.str.2@PAGE
	add	x0, x0, l_.str.2@PAGEOFF
	bl	_printf
	ldur	w0, [x29, #-4]
	ldp	x29, x30, [sp, #16]             ; 16-byte Folded Reload
	add	sp, sp, #32
	ret
	.cfi_endproc
                                        ; -- End function
	.section	__TEXT,__cstring,cstring_literals
l_.str:                                 ; @.str
	.asciz	"\n\ndebug\n\n"

l_.str.1:                               ; @.str.1
	.asciz	"hello world!\n"

l_.str.2:                               ; @.str.2
	.asciz	"%d\n"

.subsections_via_symbols
